; Function Attrs: nounwind uwtable
define hidden i32 @php_dom_get_namednodemap_length(ptr nocapture noundef readonly %0) local_unnamed_addr #0 {
  %2 = load ptr, ptr %0, align 8
  %.not = icmp eq ptr %2, null
  br i1 %.not, label %.loopexit, label %3

3:                                                ; preds = %1
  %4 = getelementptr inbounds i8, ptr %2, i64 24
  %5 = load i32, ptr %4, align 8
  switch i32 %5, label %11 [
    i32 12, label %6
    i32 6, label %6
  ]

6:                                                ; preds = %3, %3
  %7 = getelementptr inbounds i8, ptr %2, i64 32
  %8 = load ptr, ptr %7, align 8
  %.not26 = icmp eq ptr %8, null
  br i1 %.not26, label %.loopexit, label %9

9:                                                ; preds = %6
  %10 = tail call i32 @xmlHashSize(ptr noundef nonnull %8) #3
  br label %.loopexit

11:                                               ; preds = %3
  %12 = load ptr, ptr %2, align 8
  %13 = tail call ptr @dom_object_get_node(ptr noundef %12) #3
  %.not23 = icmp eq ptr %13, null
  br i1 %.not23, label %.loopexit, label %14

14:                                               ; preds = %11
  %15 = getelementptr inbounds i8, ptr %13, i64 88
  %16 = load ptr, ptr %15, align 8
  %.not24 = icmp eq ptr %16, null
  br i1 %.not24, label %.loopexit, label %.preheader

.preheader:                                       ; preds = %14, %.preheader
  %.016 = phi i32 [ %19, %.preheader ], [ 1, %14 ]
  %.0 = phi ptr [ %18, %.preheader ], [ %16, %14 ]
  %17 = getelementptr inbounds i8, ptr %.0, i64 48
  %18 = load ptr, ptr %17, align 8
  %.not25 = icmp eq ptr %18, null
  %19 = add nuw nsw i32 %.016, 1
  br i1 %.not25, label %.loopexit, label %.preheader

.loopexit:                                        ; preds = %.preheader, %11, %14, %9, %6, %1
  %.015 = phi i32 [ 0, %1 ], [ %10, %9 ], [ 0, %6 ], [ 0, %14 ], [ 0, %11 ], [ %.016, %.preheader ]
  ret i32 %.015
}